target datalayout = "e-m:e-p270:32:32-p271:32:32-p272:64:64-i64:64-i128:128-f80:128-n8:16:32:64-S128"
target triple = "x86_64-pc-linux-gnu"

%struct.rbimpl_size_mul_overflow_tag = type { i8, i64 }

@eBNError = internal global i64 0, align 8
@.str.63 = private unnamed_addr constant [10 x i8] c"BN_bin2bn\00", align 1
@.str.64 = private unnamed_addr constant [16 x i8] c"bignum too long\00", align 1

; Function Attrs: inlinehint nounwind sspstrong willreturn memory(none) uwtable
define internal { i8, i64 } @rbimpl_size_mul_overflow(i64 noundef %0, i64 noundef %1) #4 {
  %3 = alloca %struct.rbimpl_size_mul_overflow_tag, align 8
  %4 = alloca i64, align 8
  %5 = alloca i64, align 8
  store i64 %0, ptr %4, align 8, !tbaa !11
  store i64 %1, ptr %5, align 8, !tbaa !11
  call void @llvm.memset.p0.i64(ptr align 8 %3, i8 0, i64 16, i1 false)
  %6 = load i64, ptr %4, align 8, !tbaa !11
  %7 = load i64, ptr %5, align 8, !tbaa !11
  %8 = getelementptr inbounds nuw %struct.rbimpl_size_mul_overflow_tag, ptr %3, i32 0, i32 1
  %9 = call { i64, i1 } @llvm.umul.with.overflow.i64(i64 %6, i64 %7)
  %10 = extractvalue { i64, i1 } %9, 1
  %11 = extractvalue { i64, i1 } %9, 0
  store i64 %11, ptr %8, align 8
  %12 = getelementptr inbounds nuw %struct.rbimpl_size_mul_overflow_tag, ptr %3, i32 0, i32 0
  %13 = zext i1 %10 to i8
  store i8 %13, ptr %12, align 8, !tbaa !32
  %14 = load { i8, i64 }, ptr %3, align 8
  ret { i8, i64 } %14
}

; Function Attrs: inlinehint nounwind sspstrong uwtable
define internal i64 @rbimpl_size_mul_or_raise(i64 noundef %0, i64 noundef %1) #5 {
  %3 = alloca i64, align 8
  %4 = alloca i64, align 8
  %5 = alloca %struct.rbimpl_size_mul_overflow_tag, align 8
  store i64 %0, ptr %3, align 8, !tbaa !11
  store i64 %1, ptr %4, align 8, !tbaa !11
  call void @llvm.lifetime.start.p0(i64 16, ptr %5) #20
  %6 = load i64, ptr %3, align 8, !tbaa !11
  %7 = load i64, ptr %4, align 8, !tbaa !11
  %8 = call { i8, i64 } @rbimpl_size_mul_overflow(i64 noundef %6, i64 noundef %7) #22
  %9 = getelementptr inbounds nuw { i8, i64 }, ptr %5, i32 0, i32 0
  %10 = extractvalue { i8, i64 } %8, 0
  store i8 %10, ptr %9, align 8
  %11 = getelementptr inbounds nuw { i8, i64 }, ptr %5, i32 0, i32 1
  %12 = extractvalue { i8, i64 } %8, 1
  store i64 %12, ptr %11, align 8
  %13 = getelementptr inbounds nuw %struct.rbimpl_size_mul_overflow_tag, ptr %5, i32 0, i32 0
  %14 = load i8, ptr %13, align 8, !tbaa !32, !range !35, !noundef !36
  %15 = trunc i8 %14 to i1
  %16 = xor i1 %15, true
  %17 = xor i1 %16, true
  %18 = xor i1 %17, true
  %19 = zext i1 %18 to i32
  %20 = sext i32 %19 to i64
  %21 = call i64 @llvm.expect.i64(i64 %20, i64 1)
  %22 = icmp ne i64 %21, 0
  br i1 %22, label %23, label %26

23:                                               ; preds = %2
  %24 = getelementptr inbounds nuw %struct.rbimpl_size_mul_overflow_tag, ptr %5, i32 0, i32 1
  %25 = load i64, ptr %24, align 8, !tbaa !37
  call void @llvm.lifetime.end.p0(i64 16, ptr %5) #20
  ret i64 %25

26:                                               ; preds = %2
  %27 = load i64, ptr %3, align 8, !tbaa !11
  %28 = load i64, ptr %4, align 8, !tbaa !11
  call void @ruby_malloc_size_overflow(i64 noundef %27, i64 noundef %28) #21
  unreachable
}

; Function Attrs: inlinehint nounwind sspstrong willreturn memory(none) uwtable
define internal i64 @rbimpl_fix2long_by_idiv(i64 noundef %0) #4 {
  %2 = alloca i64, align 8
  %3 = alloca i64, align 8
  %4 = alloca i64, align 8
  %5 = alloca i64, align 8
  store i64 %0, ptr %2, align 8, !tbaa !11
  call void @llvm.lifetime.start.p0(i64 8, ptr %3) #20
  %6 = load i64, ptr %2, align 8, !tbaa !11
  %7 = sub i64 %6, 1
  store i64 %7, ptr %3, align 8, !tbaa !11
  call void @llvm.lifetime.start.p0(i64 8, ptr %4) #20
  %8 = load i64, ptr %3, align 8, !tbaa !11
  %9 = sdiv i64 %8, 2
  store i64 %9, ptr %4, align 8, !tbaa !11
  call void @llvm.lifetime.start.p0(i64 8, ptr %5) #20
  %10 = load i64, ptr %4, align 8, !tbaa !11
  store i64 %10, ptr %5, align 8, !tbaa !11
  %11 = load i64, ptr %5, align 8, !tbaa !11
  call void @llvm.lifetime.end.p0(i64 8, ptr %5) #20
  call void @llvm.lifetime.end.p0(i64 8, ptr %4) #20
  call void @llvm.lifetime.end.p0(i64 8, ptr %3) #20
  ret i64 %11
}

; Function Attrs: inlinehint nounwind sspstrong willreturn memory(none) uwtable
define internal i64 @rbimpl_fix2long_by_shift(i64 noundef %0) #4 {
  %2 = alloca i64, align 8
  %3 = alloca i64, align 8
  %4 = alloca i64, align 8
  %5 = alloca i64, align 8
  store i64 %0, ptr %2, align 8, !tbaa !11
  call void @llvm.lifetime.start.p0(i64 8, ptr %3) #20
  %6 = load i64, ptr %2, align 8, !tbaa !11
  store i64 %6, ptr %3, align 8, !tbaa !11
  call void @llvm.lifetime.start.p0(i64 8, ptr %4) #20
  %7 = load i64, ptr %3, align 8, !tbaa !11
  %8 = ashr i64 %7, 1
  store i64 %8, ptr %4, align 8, !tbaa !11
  call void @llvm.lifetime.start.p0(i64 8, ptr %5) #20
  %9 = load i64, ptr %4, align 8, !tbaa !11
  store i64 %9, ptr %5, align 8, !tbaa !11
  %10 = load i64, ptr %5, align 8, !tbaa !11
  call void @llvm.lifetime.end.p0(i64 8, ptr %5) #20
  call void @llvm.lifetime.end.p0(i64 8, ptr %4) #20
  call void @llvm.lifetime.end.p0(i64 8, ptr %3) #20
  ret i64 %10
}

; Function Attrs: inlinehint nounwind sspstrong willreturn memory(none) uwtable
define internal zeroext i1 @rbimpl_right_shift_is_arithmetic_p() #4 {
  ret i1 true
}

; Function Attrs: inlinehint nounwind sspstrong uwtable
define internal ptr @rb_alloc_tmp_buffer2(ptr noundef %0, i64 noundef %1, i64 noundef %2) #5 {
  %4 = alloca ptr, align 8
  %5 = alloca i64, align 8
  %6 = alloca i64, align 8
  %7 = alloca i64, align 8
  %8 = alloca i64, align 8
  store ptr %0, ptr %4, align 8, !tbaa !17
  store i64 %1, ptr %5, align 8, !tbaa !11
  store i64 %2, ptr %6, align 8, !tbaa !11
  call void @llvm.lifetime.start.p0(i64 8, ptr %7) #20
  %9 = load i64, ptr %5, align 8, !tbaa !11
  %10 = load i64, ptr %6, align 8, !tbaa !11
  %11 = call i64 @rbimpl_size_mul_or_raise(i64 noundef %9, i64 noundef %10)
  store i64 %11, ptr %7, align 8, !tbaa !11
  call void @llvm.lifetime.start.p0(i64 8, ptr %8) #20
  %12 = load i64, ptr %7, align 8, !tbaa !11
  %13 = add i64 %12, 8
  %14 = sub i64 %13, 1
  %15 = udiv i64 %14, 8
  store i64 %15, ptr %8, align 8, !tbaa !11
  %16 = load ptr, ptr %4, align 8, !tbaa !17
  %17 = load i64, ptr %7, align 8, !tbaa !11
  %18 = load i64, ptr %8, align 8, !tbaa !11
  %19 = call noalias nonnull ptr @rb_alloc_tmp_buffer_with_count(ptr noundef %16, i64 noundef %17, i64 noundef %18) #25
  call void @llvm.lifetime.end.p0(i64 8, ptr %8) #20
  call void @llvm.lifetime.end.p0(i64 8, ptr %7) #20
  ret ptr %19
}

; Function Attrs: inlinehint nounwind sspstrong willreturn memory(none) uwtable
define internal i64 @rb_fix2long(i64 noundef %0) #4 {
  %2 = alloca i64, align 8
  %3 = alloca i64, align 8
  store i64 %0, ptr %3, align 8, !tbaa !11
  %4 = call zeroext i1 @rbimpl_right_shift_is_arithmetic_p() #22
  br i1 %4, label %5, label %8

5:                                                ; preds = %1
  %6 = load i64, ptr %3, align 8, !tbaa !11
  %7 = call i64 @rbimpl_fix2long_by_shift(i64 noundef %6) #22
  store i64 %7, ptr %2, align 8
  br label %11

8:                                                ; preds = %1
  %9 = load i64, ptr %3, align 8, !tbaa !11
  %10 = call i64 @rbimpl_fix2long_by_idiv(i64 noundef %9) #22
  store i64 %10, ptr %2, align 8
  br label %11

11:                                               ; preds = %8, %5
  %12 = load i64, ptr %2, align 8
  ret i64 %12
}

; Function Attrs: inlinehint nounwind sspstrong willreturn memory(none) uwtable
define internal zeroext i1 @RB_FIXNUM_P(i64 noundef %0) #4 {
  %2 = alloca i64, align 8
  store i64 %0, ptr %2, align 8, !tbaa !11
  %3 = load i64, ptr %2, align 8, !tbaa !11
  %4 = and i64 %3, 1
  %5 = icmp ne i64 %4, 0
  ret i1 %5
}

; Function Attrs: nounwind sspstrong uwtable
define internal ptr @integer_to_bnptr(i64 noundef %0, ptr noundef %1) #0 {
  %3 = alloca i64, align 8
  %4 = alloca ptr, align 8
  %5 = alloca ptr, align 8
  %6 = alloca i64, align 8
  %7 = alloca [8 x i8], align 1
  %8 = alloca i64, align 8
  %9 = alloca i64, align 8
  %10 = alloca i64, align 8
  %11 = alloca ptr, align 8
  %12 = alloca i64, align 8
  %13 = alloca i32, align 4
  store i64 %0, ptr %3, align 8, !tbaa !11
  store ptr %1, ptr %4, align 8, !tbaa !6
  call void @llvm.lifetime.start.p0(i64 8, ptr %5) #20
  %14 = load i64, ptr %3, align 8, !tbaa !11
  %15 = call zeroext i1 @RB_FIXNUM_P(i64 noundef %14) #22
  br i1 %15, label %16, label %49

16:                                               ; preds = %2
  call void @llvm.lifetime.start.p0(i64 8, ptr %6) #20
  call void @llvm.lifetime.start.p0(i64 8, ptr %7) #20
  call void @llvm.lifetime.start.p0(i64 8, ptr %8) #20
  %17 = load i64, ptr %3, align 8, !tbaa !11
  %18 = call i64 @rb_fix2long(i64 noundef %17) #22
  store i64 %18, ptr %8, align 8, !tbaa !11
  call void @llvm.lifetime.start.p0(i64 8, ptr %9) #20
  %19 = load i64, ptr %8, align 8, !tbaa !11
  %20 = call i64 @llvm.abs.i64(i64 %19, i1 true)
  store i64 %20, ptr %9, align 8, !tbaa !11
  store i64 7, ptr %6, align 8, !tbaa !11
  br label %21

21:                                               ; preds = %32, %16
  %22 = load i64, ptr %6, align 8, !tbaa !11
  %23 = icmp sle i64 0, %22
  br i1 %23, label %24, label %35

24:                                               ; preds = %21
  %25 = load i64, ptr %9, align 8, !tbaa !11
  %26 = and i64 %25, 255
  %27 = trunc i64 %26 to i8
  %28 = load i64, ptr %6, align 8, !tbaa !11
  %29 = getelementptr inbounds [8 x i8], ptr %7, i64 0, i64 %28
  store i8 %27, ptr %29, align 1, !tbaa !28
  %30 = load i64, ptr %9, align 8, !tbaa !11
  %31 = lshr i64 %30, 8
  store i64 %31, ptr %9, align 8, !tbaa !11
  br label %32

32:                                               ; preds = %24
  %33 = load i64, ptr %6, align 8, !tbaa !11
  %34 = add nsw i64 %33, -1
  store i64 %34, ptr %6, align 8, !tbaa !11
  br label %21, !llvm.loop !29

35:                                               ; preds = %21
  %36 = getelementptr inbounds [8 x i8], ptr %7, i64 0, i64 0
  %37 = load ptr, ptr %4, align 8, !tbaa !6
  %38 = call ptr @BN_bin2bn(ptr noundef %36, i32 noundef 8, ptr noundef %37)
  store ptr %38, ptr %5, align 8, !tbaa !6
  %39 = load ptr, ptr %5, align 8, !tbaa !6
  %40 = icmp ne ptr %39, null
  br i1 %40, label %43, label %41

41:                                               ; preds = %35
  %42 = load i64, ptr @eBNError, align 8, !tbaa !11
  call void (i64, ptr, ...) @ossl_raise(i64 noundef %42, ptr noundef @.str.63) #21
  unreachable

43:                                               ; preds = %35
  %44 = load i64, ptr %8, align 8, !tbaa !11
  %45 = icmp slt i64 %44, 0
  br i1 %45, label %46, label %48

46:                                               ; preds = %43
  %47 = load ptr, ptr %5, align 8, !tbaa !6
  call void @BN_set_negative(ptr noundef %47, i32 noundef 1)
  br label %48

48:                                               ; preds = %46, %43
  call void @llvm.lifetime.end.p0(i64 8, ptr %9) #20
  call void @llvm.lifetime.end.p0(i64 8, ptr %8) #20
  call void @llvm.lifetime.end.p0(i64 8, ptr %7) #20
  call void @llvm.lifetime.end.p0(i64 8, ptr %6) #20
  br label %87

49:                                               ; preds = %2
  call void @llvm.lifetime.start.p0(i64 8, ptr %10) #20
  %50 = load i64, ptr %3, align 8, !tbaa !11
  %51 = call i64 @rb_absint_size(i64 noundef %50, ptr noundef null)
  store i64 %51, ptr %10, align 8, !tbaa !11
  call void @llvm.lifetime.start.p0(i64 8, ptr %11) #20
  call void @llvm.lifetime.start.p0(i64 8, ptr %12) #20
  call void @llvm.lifetime.start.p0(i64 4, ptr %13) #20
  %52 = load i64, ptr %10, align 8, !tbaa !11
  %53 = icmp ult i64 2147483647, %52
  br i1 %53, label %54, label %56

54:                                               ; preds = %49
  %55 = load i64, ptr @eBNError, align 8, !tbaa !11
  call void (i64, ptr, ...) @rb_raise(i64 noundef %55, ptr noundef @.str.64) #21
  unreachable

56:                                               ; preds = %49
  %57 = load i64, ptr %10, align 8, !tbaa !11
  %58 = icmp ult i64 %57, 1024
  br i1 %58, label %59, label %63

59:                                               ; preds = %56
  store i64 0, ptr %12, align 8, !tbaa !11
  %60 = load i64, ptr %10, align 8, !tbaa !11
  %61 = mul i64 %60, 1
  %62 = alloca i8, i64 %61, align 16
  br label %66

63:                                               ; preds = %56
  %64 = load i64, ptr %10, align 8, !tbaa !11
  %65 = call ptr @rb_alloc_tmp_buffer2(ptr noundef %12, i64 noundef %64, i64 noundef 1)
  br label %66

66:                                               ; preds = %63, %59
  %67 = phi ptr [ %62, %59 ], [ %65, %63 ]
  store ptr %67, ptr %11, align 8, !tbaa !25
  %68 = load i64, ptr %3, align 8, !tbaa !11
  %69 = load ptr, ptr %11, align 8, !tbaa !25
  %70 = load i64, ptr %10, align 8, !tbaa !11
  %71 = call i32 @rb_integer_pack(i64 noundef %68, ptr noundef %69, i64 noundef %70, i64 noundef 1, i64 noundef 0, i32 noundef 17)
  store i32 %71, ptr %13, align 4, !tbaa !23
  %72 = load ptr, ptr %11, align 8, !tbaa !25
  %73 = load i64, ptr %10, align 8, !tbaa !11
  %74 = trunc i64 %73 to i32
  %75 = load ptr, ptr %4, align 8, !tbaa !6
  %76 = call ptr @BN_bin2bn(ptr noundef %72, i32 noundef %74, ptr noundef %75)
  store ptr %76, ptr %5, align 8, !tbaa !6
  call void @rb_free_tmp_buffer(ptr noundef %12)
  %77 = load ptr, ptr %5, align 8, !tbaa !6
  %78 = icmp ne ptr %77, null
  br i1 %78, label %81, label %79

79:                                               ; preds = %66
  %80 = load i64, ptr @eBNError, align 8, !tbaa !11
  call void (i64, ptr, ...) @ossl_raise(i64 noundef %80, ptr noundef @.str.63) #21
  unreachable

81:                                               ; preds = %66
  %82 = load i32, ptr %13, align 4, !tbaa !23
  %83 = icmp slt i32 %82, 0
  br i1 %83, label %84, label %86

84:                                               ; preds = %81
  %85 = load ptr, ptr %5, align 8, !tbaa !6
  call void @BN_set_negative(ptr noundef %85, i32 noundef 1)
  br label %86

86:                                               ; preds = %84, %81
  call void @llvm.lifetime.end.p0(i64 4, ptr %13) #20
  call void @llvm.lifetime.end.p0(i64 8, ptr %12) #20
  call void @llvm.lifetime.end.p0(i64 8, ptr %11) #20
  call void @llvm.lifetime.end.p0(i64 8, ptr %10) #20
  br label %87

87:                                               ; preds = %86, %48
  %88 = load ptr, ptr %5, align 8, !tbaa !6
  call void @llvm.lifetime.end.p0(i64 8, ptr %5) #20
  ret ptr %88
}