; Function Attrs: nounwind sspstrong uwtable
define internal fastcc nonnull ptr @integer_to_bnptr(i64 noundef %0, ptr noundef %1) unnamed_addr #0 {
  %3 = alloca [8 x i8], align 1
  %4 = alloca i64, align 8
  %5 = and i64 %0, 1
  %.not32 = icmp eq i64 %5, 0
  br i1 %.not32, label %22, label %6

6:                                                ; preds = %2
  call void @llvm.lifetime.start.p0(i64 8, ptr nonnull %3) #11
  %7 = ashr i64 %0, 1
  %8 = tail call i64 @llvm.abs.i64(i64 %7, i1 true)
  br label %9

9:                                                ; preds = %6, %9
  %.02634 = phi i64 [ 7, %6 ], [ %13, %9 ]
  %.02733 = phi i64 [ %8, %6 ], [ %12, %9 ]
  %10 = trunc i64 %.02733 to i8
  %11 = getelementptr inbounds nuw [8 x i8], ptr %3, i64 0, i64 %.02634
  store i8 %10, ptr %11, align 1, !tbaa !36
  %12 = lshr i64 %.02733, 8
  %13 = add nsw i64 %.02634, -1
  %.not35 = icmp eq i64 %.02634, 0
  br i1 %.not35, label %14, label %9, !llvm.loop !37

14:                                               ; preds = %9
  %15 = call ptr @BN_bin2bn(ptr noundef nonnull %3, i32 noundef 8, ptr noundef %1) #11
  %.not31 = icmp eq ptr %15, null
  br i1 %.not31, label %16, label %18

16:                                               ; preds = %14
  %17 = load i64, ptr @eBNError, align 8, !tbaa !6
  call void (i64, ptr, ...) @ossl_raise(i64 noundef %17, ptr noundef nonnull @.str.63) #12
  unreachable

18:                                               ; preds = %14
  %19 = icmp slt i64 %7, 0
  br i1 %19, label %20, label %21

20:                                               ; preds = %18
  call void @BN_set_negative(ptr noundef nonnull %15, i32 noundef 1) #11
  br label %21

21:                                               ; preds = %20, %18
  call void @llvm.lifetime.end.p0(i64 8, ptr nonnull %3) #11
  br label %46

22:                                               ; preds = %2
  %23 = tail call i64 @rb_absint_size(i64 noundef %0, ptr noundef null) #11
  call void @llvm.lifetime.start.p0(i64 8, ptr nonnull %4) #11
  %24 = icmp ugt i64 %23, 2147483647
  br i1 %24, label %25, label %27

25:                                               ; preds = %22
  %26 = load i64, ptr @eBNError, align 8, !tbaa !6
  tail call void (i64, ptr, ...) @rb_raise(i64 noundef %26, ptr noundef nonnull @.str.64) #12
  unreachable

27:                                               ; preds = %22
  %28 = icmp samesign ult i64 %23, 1024
  br i1 %28, label %29, label %31

29:                                               ; preds = %27
  store i64 0, ptr %4, align 8, !tbaa !6
  %30 = alloca i8, i64 %23, align 16
  br label %35

31:                                               ; preds = %27
  %32 = add nuw nsw i64 %23, 7
  %33 = lshr i64 %32, 3
  %34 = call noalias nonnull ptr @rb_alloc_tmp_buffer_with_count(ptr noundef nonnull %4, i64 noundef range(i64 1024, 2147483648) %23, i64 noundef %33) #16
  br label %35

35:                                               ; preds = %31, %29
  %36 = phi ptr [ %30, %29 ], [ %34, %31 ]
  %37 = call i32 @rb_integer_pack(i64 noundef %0, ptr noundef nonnull %36, i64 noundef %23, i64 noundef 1, i64 noundef 0, i32 noundef 17) #11
  %38 = trunc nuw nsw i64 %23 to i32
  %39 = call ptr @BN_bin2bn(ptr noundef nonnull %36, i32 noundef %38, ptr noundef %1) #11
  call void @rb_free_tmp_buffer(ptr noundef nonnull %4) #11
  %.not = icmp eq ptr %39, null
  br i1 %.not, label %40, label %42

40:                                               ; preds = %35
  %41 = load i64, ptr @eBNError, align 8, !tbaa !6
  call void (i64, ptr, ...) @ossl_raise(i64 noundef %41, ptr noundef nonnull @.str.63) #12
  unreachable

42:                                               ; preds = %35
  %43 = icmp slt i32 %37, 0
  br i1 %43, label %44, label %45

44:                                               ; preds = %42
  call void @BN_set_negative(ptr noundef nonnull %39, i32 noundef 1) #11
  br label %45

45:                                               ; preds = %44, %42
  call void @llvm.lifetime.end.p0(i64 8, ptr nonnull %4) #11
  br label %46

46:                                               ; preds = %45, %21
  %.0 = phi ptr [ %15, %21 ], [ %39, %45 ]
  ret ptr %.0
}